; Function Attrs: mustprogress nofree norecurse nosync nounwind willreturn memory(argmem: write) uwtable
define hidden void @nghttp2_frame_rst_stream_init(ptr noundef writeonly captures(none) initializes((0, 15), (16, 20)) %0, i32 noundef %1, i32 noundef %2) local_unnamed_addr #2 {
  store i64 4, ptr %0, align 8, !tbaa !3
  %4 = getelementptr inbounds nuw i8, ptr %0, i64 12
  store i8 3, ptr %4, align 4, !tbaa !9
  %5 = getelementptr inbounds nuw i8, ptr %0, i64 13
  store i8 0, ptr %5, align 1, !tbaa !11
  %6 = getelementptr inbounds nuw i8, ptr %0, i64 8
  store i32 %1, ptr %6, align 8, !tbaa !12
  %7 = getelementptr inbounds nuw i8, ptr %0, i64 14
  store i8 0, ptr %7, align 2, !tbaa !13
  %8 = getelementptr inbounds nuw i8, ptr %0, i64 16
  store i32 %2, ptr %8, align 8, !tbaa !23
  ret void
}